; Function Attrs: mustprogress nofree norecurse nosync nounwind willreturn memory(read, argmem: readwrite, inaccessiblemem: none) uwtable
define internal noundef i32 @H5D__virtual_io_init(ptr noundef captures(none) %0, ptr readnone captures(none) %1) #2 {
  %3 = load i8, ptr @H5D_init_g, align 1, !tbaa !3, !range !7, !noundef !8
  %4 = trunc nuw i8 %3 to i1
  %5 = load i8, ptr @H5_libterm_g, align 1, !range !7
  %6 = trunc nuw i8 %5 to i1
  %7 = xor i1 %6, true
  %8 = select i1 %4, i1 true, i1 %7
  br i1 %8, label %9, label %14, !prof !9

9:                                                ; preds = %2
  %10 = getelementptr inbounds nuw i8, ptr %0, i64 168
  store i32 1, ptr %10, align 8, !tbaa !81
  %11 = getelementptr inbounds nuw i8, ptr %0, i64 236
  %12 = load i32, ptr %11, align 4, !tbaa !89
  %13 = or i32 %12, 2
  store i32 %13, ptr %11, align 4, !tbaa !89
  br label %14

14:                                               ; preds = %9, %2
  ret i32 0
}